target datalayout = "e-m:e-p270:32:32-p271:32:32-p272:64:64-i64:64-i128:128-f80:128-n8:16:32:64-S128"
target triple = "x86_64-pc-linux-gnu"

%struct.H5FD_multi_fapl_t = type { [7 x i32], [7 x i64], [7 x ptr], [7 x i64], i8 }

@.str.1 = private unnamed_addr constant [103 x i8] c"generated/home/dtcxzyw/WorkSpace/Projects/compilers/llvm-opt-benchmark/bench/hdf5/hdf5/src/H5FDmulti.c\00", align 1
@H5_libinit_g = external global i8, align 1
@H5_libterm_g = external global i8, align 1
@H5E_ERR_CLS_g = external global i64, align 8
@H5E_INTERNAL_g = external global i64, align 8
@H5E_CANTSET_g = external global i64, align 8
@H5FD_MULTI_id_g = external global i64, align 8
@H5P_CLS_FILE_ACCESS_ID_g = external global i64, align 8
@__func__.H5Pset_fapl_multi = private unnamed_addr constant [18 x i8] c"H5Pset_fapl_multi\00", align 1
@H5E_PLIST_g = external global i64, align 8
@H5E_BADVALUE_g = external global i64, align 8
@.str.3 = private unnamed_addr constant [19 x i8] c"not an access list\00", align 1
@.str.4 = private unnamed_addr constant [33 x i8] c"can't setup driver configuration\00", align 1

; Function Attrs: nounwind uwtable
define i32 @H5Pset_fapl_multi(i64 noundef %0, ptr noundef %1, ptr noundef %2, ptr noundef %3, ptr noundef %4, i1 noundef zeroext %5) #0 {
  %7 = alloca i32, align 4
  %8 = alloca i64, align 8
  %9 = alloca ptr, align 8
  %10 = alloca ptr, align 8
  %11 = alloca ptr, align 8
  %12 = alloca ptr, align 8
  %13 = alloca i8, align 1
  %14 = alloca %struct.H5FD_multi_fapl_t, align 8
  %15 = alloca i32, align 4
  store i64 %0, ptr %8, align 8, !tbaa !12
  store ptr %1, ptr %9, align 8, !tbaa !40
  store ptr %2, ptr %10, align 8, !tbaa !31
  store ptr %3, ptr %11, align 8, !tbaa !75
  store ptr %4, ptr %12, align 8, !tbaa !31
  %16 = zext i1 %5 to i8
  store i8 %16, ptr %13, align 1, !tbaa !22
  call void @llvm.lifetime.start.p0(i64 208, ptr %14) #9
  %17 = call i32 @H5Eclear2(i64 noundef 0)
  %18 = load i64, ptr %8, align 8, !tbaa !12
  %19 = call i32 @H5Iget_type(i64 noundef %18)
  %20 = icmp ne i32 11, %19
  br i1 %20, label %44, label %21

21:                                               ; preds = %6
  %22 = load i64, ptr %8, align 8, !tbaa !12
  %23 = load i8, ptr @H5_libinit_g, align 1, !tbaa !22, !range !24, !noundef !25
  %24 = trunc i8 %23 to i1
  br i1 %24, label %29, label %25

25:                                               ; preds = %21
  %26 = load i8, ptr @H5_libterm_g, align 1, !tbaa !22, !range !24, !noundef !25
  %27 = trunc i8 %26 to i1
  %28 = xor i1 %27, true
  br label %29

29:                                               ; preds = %25, %21
  %30 = phi i1 [ false, %21 ], [ %28, %25 ]
  %31 = xor i1 %30, true
  %32 = xor i1 %31, true
  %33 = zext i1 %32 to i32
  %34 = sext i32 %33 to i64
  %35 = call i64 @llvm.expect.i64(i64 %34, i64 0)
  %36 = icmp ne i64 %35, 0
  br i1 %36, label %37, label %39

37:                                               ; preds = %29
  %38 = call i32 @H5open()
  br label %40

39:                                               ; preds = %29
  br label %40

40:                                               ; preds = %39, %37
  %41 = load i64, ptr @H5P_CLS_FILE_ACCESS_ID_g, align 8, !tbaa !12
  %42 = call i32 @H5Pisa_class(i64 noundef %22, i64 noundef %41)
  %43 = icmp ne i32 1, %42
  br i1 %43, label %44, label %106

44:                                               ; preds = %40, %6
  br label %45

45:                                               ; preds = %44
  %46 = load i8, ptr @H5_libinit_g, align 1, !tbaa !22, !range !24, !noundef !25
  %47 = trunc i8 %46 to i1
  br i1 %47, label %52, label %48

48:                                               ; preds = %45
  %49 = load i8, ptr @H5_libterm_g, align 1, !tbaa !22, !range !24, !noundef !25
  %50 = trunc i8 %49 to i1
  %51 = xor i1 %50, true
  br label %52

52:                                               ; preds = %48, %45
  %53 = phi i1 [ false, %45 ], [ %51, %48 ]
  %54 = xor i1 %53, true
  %55 = xor i1 %54, true
  %56 = zext i1 %55 to i32
  %57 = sext i32 %56 to i64
  %58 = call i64 @llvm.expect.i64(i64 %57, i64 0)
  %59 = icmp ne i64 %58, 0
  br i1 %59, label %60, label %62

60:                                               ; preds = %52
  %61 = call i32 @H5open()
  br label %63

62:                                               ; preds = %52
  br label %63

63:                                               ; preds = %62, %60
  %64 = load i64, ptr @H5E_ERR_CLS_g, align 8, !tbaa !12
  %65 = load i8, ptr @H5_libinit_g, align 1, !tbaa !22, !range !24, !noundef !25
  %66 = trunc i8 %65 to i1
  br i1 %66, label %71, label %67

67:                                               ; preds = %63
  %68 = load i8, ptr @H5_libterm_g, align 1, !tbaa !22, !range !24, !noundef !25
  %69 = trunc i8 %68 to i1
  %70 = xor i1 %69, true
  br label %71

71:                                               ; preds = %67, %63
  %72 = phi i1 [ false, %63 ], [ %70, %67 ]
  %73 = xor i1 %72, true
  %74 = xor i1 %73, true
  %75 = zext i1 %74 to i32
  %76 = sext i32 %75 to i64
  %77 = call i64 @llvm.expect.i64(i64 %76, i64 0)
  %78 = icmp ne i64 %77, 0
  br i1 %78, label %79, label %81

79:                                               ; preds = %71
  %80 = call i32 @H5open()
  br label %82

81:                                               ; preds = %71
  br label %82

82:                                               ; preds = %81, %79
  %83 = load i64, ptr @H5E_PLIST_g, align 8, !tbaa !12
  %84 = load i8, ptr @H5_libinit_g, align 1, !tbaa !22, !range !24, !noundef !25
  %85 = trunc i8 %84 to i1
  br i1 %85, label %90, label %86

86:                                               ; preds = %82
  %87 = load i8, ptr @H5_libterm_g, align 1, !tbaa !22, !range !24, !noundef !25
  %88 = trunc i8 %87 to i1
  %89 = xor i1 %88, true
  br label %90

90:                                               ; preds = %86, %82
  %91 = phi i1 [ false, %82 ], [ %89, %86 ]
  %92 = xor i1 %91, true
  %93 = xor i1 %92, true
  %94 = zext i1 %93 to i32
  %95 = sext i32 %94 to i64
  %96 = call i64 @llvm.expect.i64(i64 %95, i64 0)
  %97 = icmp ne i64 %96, 0
  br i1 %97, label %98, label %100

98:                                               ; preds = %90
  %99 = call i32 @H5open()
  br label %101

100:                                              ; preds = %90
  br label %101

101:                                              ; preds = %100, %98
  %102 = load i64, ptr @H5E_BADVALUE_g, align 8, !tbaa !12
  %103 = call i32 (i64, ptr, ptr, i32, i64, i64, i64, ptr, ...) @H5Epush2(i64 noundef 0, ptr noundef @.str.1, ptr noundef @__func__.H5Pset_fapl_multi, i32 noundef 305, i64 noundef %64, i64 noundef %83, i64 noundef %102, ptr noundef @.str.3)
  store i32 -1, ptr %7, align 4
  store i32 1, ptr %15, align 4
  br label %199

104:                                              ; No predecessors!
  br label %105

105:                                              ; preds = %104
  br label %106

106:                                              ; preds = %105, %40
  %107 = load ptr, ptr %9, align 8, !tbaa !40
  %108 = load ptr, ptr %10, align 8, !tbaa !31
  %109 = load ptr, ptr %11, align 8, !tbaa !75
  %110 = load ptr, ptr %12, align 8, !tbaa !31
  %111 = load i8, ptr %13, align 1, !tbaa !22, !range !24, !noundef !25
  %112 = trunc i8 %111 to i1
  %113 = call i32 @H5FD_multi_populate_config(ptr noundef %107, ptr noundef %108, ptr noundef %109, ptr noundef %110, i1 noundef zeroext %112, ptr noundef %14)
  %114 = icmp slt i32 %113, 0
  br i1 %114, label %115, label %177

115:                                              ; preds = %106
  br label %116

116:                                              ; preds = %115
  %117 = load i8, ptr @H5_libinit_g, align 1, !tbaa !22, !range !24, !noundef !25
  %118 = trunc i8 %117 to i1
  br i1 %118, label %123, label %119

119:                                              ; preds = %116
  %120 = load i8, ptr @H5_libterm_g, align 1, !tbaa !22, !range !24, !noundef !25
  %121 = trunc i8 %120 to i1
  %122 = xor i1 %121, true
  br label %123

123:                                              ; preds = %119, %116
  %124 = phi i1 [ false, %116 ], [ %122, %119 ]
  %125 = xor i1 %124, true
  %126 = xor i1 %125, true
  %127 = zext i1 %126 to i32
  %128 = sext i32 %127 to i64
  %129 = call i64 @llvm.expect.i64(i64 %128, i64 0)
  %130 = icmp ne i64 %129, 0
  br i1 %130, label %131, label %133

131:                                              ; preds = %123
  %132 = call i32 @H5open()
  br label %134

133:                                              ; preds = %123
  br label %134

134:                                              ; preds = %133, %131
  %135 = load i64, ptr @H5E_ERR_CLS_g, align 8, !tbaa !12
  %136 = load i8, ptr @H5_libinit_g, align 1, !tbaa !22, !range !24, !noundef !25
  %137 = trunc i8 %136 to i1
  br i1 %137, label %142, label %138

138:                                              ; preds = %134
  %139 = load i8, ptr @H5_libterm_g, align 1, !tbaa !22, !range !24, !noundef !25
  %140 = trunc i8 %139 to i1
  %141 = xor i1 %140, true
  br label %142

142:                                              ; preds = %138, %134
  %143 = phi i1 [ false, %134 ], [ %141, %138 ]
  %144 = xor i1 %143, true
  %145 = xor i1 %144, true
  %146 = zext i1 %145 to i32
  %147 = sext i32 %146 to i64
  %148 = call i64 @llvm.expect.i64(i64 %147, i64 0)
  %149 = icmp ne i64 %148, 0
  br i1 %149, label %150, label %152

150:                                              ; preds = %142
  %151 = call i32 @H5open()
  br label %153

152:                                              ; preds = %142
  br label %153

153:                                              ; preds = %152, %150
  %154 = load i64, ptr @H5E_INTERNAL_g, align 8, !tbaa !12
  %155 = load i8, ptr @H5_libinit_g, align 1, !tbaa !22, !range !24, !noundef !25
  %156 = trunc i8 %155 to i1
  br i1 %156, label %161, label %157

157:                                              ; preds = %153
  %158 = load i8, ptr @H5_libterm_g, align 1, !tbaa !22, !range !24, !noundef !25
  %159 = trunc i8 %158 to i1
  %160 = xor i1 %159, true
  br label %161

161:                                              ; preds = %157, %153
  %162 = phi i1 [ false, %153 ], [ %160, %157 ]
  %163 = xor i1 %162, true
  %164 = xor i1 %163, true
  %165 = zext i1 %164 to i32
  %166 = sext i32 %165 to i64
  %167 = call i64 @llvm.expect.i64(i64 %166, i64 0)
  %168 = icmp ne i64 %167, 0
  br i1 %168, label %169, label %171

169:                                              ; preds = %161
  %170 = call i32 @H5open()
  br label %172

171:                                              ; preds = %161
  br label %172

172:                                              ; preds = %171, %169
  %173 = load i64, ptr @H5E_CANTSET_g, align 8, !tbaa !12
  %174 = call i32 (i64, ptr, ptr, i32, i64, i64, i64, ptr, ...) @H5Epush2(i64 noundef 0, ptr noundef @.str.1, ptr noundef @__func__.H5Pset_fapl_multi, i32 noundef 307, i64 noundef %135, i64 noundef %154, i64 noundef %173, ptr noundef @.str.4)
  store i32 -1, ptr %7, align 4
  store i32 1, ptr %15, align 4
  br label %199

175:                                              ; No predecessors!
  br label %176

176:                                              ; preds = %175
  br label %177

177:                                              ; preds = %176, %106
  %178 = load i64, ptr %8, align 8, !tbaa !12
  %179 = load i8, ptr @H5_libinit_g, align 1, !tbaa !22, !range !24, !noundef !25
  %180 = trunc i8 %179 to i1
  br i1 %180, label %185, label %181

181:                                              ; preds = %177
  %182 = load i8, ptr @H5_libterm_g, align 1, !tbaa !22, !range !24, !noundef !25
  %183 = trunc i8 %182 to i1
  %184 = xor i1 %183, true
  br label %185

185:                                              ; preds = %181, %177
  %186 = phi i1 [ false, %177 ], [ %184, %181 ]
  %187 = xor i1 %186, true
  %188 = xor i1 %187, true
  %189 = zext i1 %188 to i32
  %190 = sext i32 %189 to i64
  %191 = call i64 @llvm.expect.i64(i64 %190, i64 0)
  %192 = icmp ne i64 %191, 0
  br i1 %192, label %193, label %195

193:                                              ; preds = %185
  %194 = call i32 @H5open()
  br label %196

195:                                              ; preds = %185
  br label %196

196:                                              ; preds = %195, %193
  %197 = load i64, ptr @H5FD_MULTI_id_g, align 8, !tbaa !12
  %198 = call i32 @H5Pset_driver(i64 noundef %178, i64 noundef %197, ptr noundef %14)
  store i32 %198, ptr %7, align 4
  store i32 1, ptr %15, align 4
  br label %199

199:                                              ; preds = %196, %172, %101
  call void @llvm.lifetime.end.p0(i64 208, ptr %14) #9
  %200 = load i32, ptr %7, align 4
  ret i32 %200
}