; Function Attrs: nounwind uwtable
define i32 @H5Pset_fapl_multi(i64 noundef %0, ptr noundef captures(address_is_null) %1, ptr noundef captures(address_is_null) %2, ptr noundef captures(address_is_null) %3, ptr noundef captures(address_is_null) %4, i1 noundef zeroext %5) local_unnamed_addr #0 {
  %7 = alloca %struct.H5FD_multi_fapl_t, align 8
  call void @llvm.lifetime.start.p0(i64 208, ptr nonnull %7) #15
  %8 = tail call i32 @H5Eclear2(i64 noundef 0) #15
  %9 = tail call i32 @H5Iget_type(i64 noundef %0) #15
  %.not = icmp eq i32 %9, 11
  br i1 %.not, label %10, label %21

10:                                               ; preds = %6
  %11 = load i8, ptr @H5_libinit_g, align 1, !tbaa !18, !range !20, !noundef !21
  %12 = trunc nuw i8 %11 to i1
  %13 = load i8, ptr @H5_libterm_g, align 1, !range !20
  %14 = trunc nuw i8 %13 to i1
  %15 = select i1 %12, i1 true, i1 %14
  br i1 %15, label %18, label %16, !prof !22

16:                                               ; preds = %10
  %17 = tail call i32 @H5open() #15
  br label %18

18:                                               ; preds = %10, %16
  %19 = load i64, ptr @H5P_CLS_FILE_ACCESS_ID_g, align 8, !tbaa !23
  %20 = tail call i32 @H5Pisa_class(i64 noundef %0, i64 noundef %19) #15
  %.not8 = icmp eq i32 %20, 1
  br i1 %.not8, label %50, label %21

21:                                               ; preds = %6, %18
  %22 = load i8, ptr @H5_libinit_g, align 1, !tbaa !18, !range !20, !noundef !21
  %23 = trunc nuw i8 %22 to i1
  %24 = load i8, ptr @H5_libterm_g, align 1, !range !20
  %25 = trunc nuw i8 %24 to i1
  %26 = select i1 %23, i1 true, i1 %25
  br i1 %26, label %29, label %27, !prof !22

27:                                               ; preds = %21
  %28 = tail call i32 @H5open() #15
  %.pre = load i8, ptr @H5_libinit_g, align 1, !tbaa !18, !range !20
  %.pre9 = load i8, ptr @H5_libterm_g, align 1, !range !20
  br label %29

29:                                               ; preds = %21, %27
  %30 = phi i8 [ %24, %21 ], [ %.pre9, %27 ]
  %31 = phi i8 [ %22, %21 ], [ %.pre, %27 ]
  %32 = load i64, ptr @H5E_ERR_CLS_g, align 8, !tbaa !23
  %33 = trunc nuw i8 %31 to i1
  %34 = trunc nuw i8 %30 to i1
  %35 = select i1 %33, i1 true, i1 %34
  br i1 %35, label %38, label %36, !prof !22

36:                                               ; preds = %29
  %37 = tail call i32 @H5open() #15
  %.pre10 = load i8, ptr @H5_libinit_g, align 1, !tbaa !18, !range !20
  %.pre11 = load i8, ptr @H5_libterm_g, align 1, !range !20
  br label %38

38:                                               ; preds = %29, %36
  %39 = phi i8 [ %30, %29 ], [ %.pre11, %36 ]
  %40 = phi i8 [ %31, %29 ], [ %.pre10, %36 ]
  %41 = load i64, ptr @H5E_PLIST_g, align 8, !tbaa !23
  %42 = trunc nuw i8 %40 to i1
  %43 = trunc nuw i8 %39 to i1
  %44 = select i1 %42, i1 true, i1 %43
  br i1 %44, label %47, label %45, !prof !22

45:                                               ; preds = %38
  %46 = tail call i32 @H5open() #15
  br label %47

47:                                               ; preds = %38, %45
  %48 = load i64, ptr @H5E_BADVALUE_g, align 8, !tbaa !23
  %49 = tail call i32 (i64, ptr, ptr, i32, i64, i64, i64, ptr, ...) @H5Epush2(i64 noundef 0, ptr noundef nonnull @.str.1, ptr noundef nonnull @__func__.H5Pset_fapl_multi, i32 noundef 305, i64 noundef %32, i64 noundef %41, i64 noundef %48, ptr noundef nonnull @.str.3) #15
  br label %88

50:                                               ; preds = %18
  %51 = call fastcc i32 @H5FD_multi_populate_config(ptr noundef %1, ptr noundef %2, ptr noundef %3, ptr noundef %4, i1 noundef zeroext %5, ptr noundef %7)
  %52 = icmp slt i32 %51, 0
  %53 = load i8, ptr @H5_libinit_g, align 1, !tbaa !18, !range !20, !noundef !21
  %54 = trunc nuw i8 %53 to i1
  %55 = load i8, ptr @H5_libterm_g, align 1, !range !20
  %56 = trunc nuw i8 %55 to i1
  %57 = select i1 %54, i1 true, i1 %56
  br i1 %52, label %58, label %82

58:                                               ; preds = %50
  br i1 %57, label %61, label %59, !prof !22

59:                                               ; preds = %58
  %60 = tail call i32 @H5open() #15
  %.pre12 = load i8, ptr @H5_libinit_g, align 1, !tbaa !18, !range !20
  %.pre13 = load i8, ptr @H5_libterm_g, align 1, !range !20
  br label %61

61:                                               ; preds = %58, %59
  %62 = phi i8 [ %55, %58 ], [ %.pre13, %59 ]
  %63 = phi i8 [ %53, %58 ], [ %.pre12, %59 ]
  %64 = load i64, ptr @H5E_ERR_CLS_g, align 8, !tbaa !23
  %65 = trunc nuw i8 %63 to i1
  %66 = trunc nuw i8 %62 to i1
  %67 = select i1 %65, i1 true, i1 %66
  br i1 %67, label %70, label %68, !prof !22

68:                                               ; preds = %61
  %69 = tail call i32 @H5open() #15
  %.pre14 = load i8, ptr @H5_libinit_g, align 1, !tbaa !18, !range !20
  %.pre15 = load i8, ptr @H5_libterm_g, align 1, !range !20
  br label %70

70:                                               ; preds = %61, %68
  %71 = phi i8 [ %62, %61 ], [ %.pre15, %68 ]
  %72 = phi i8 [ %63, %61 ], [ %.pre14, %68 ]
  %73 = load i64, ptr @H5E_INTERNAL_g, align 8, !tbaa !23
  %74 = trunc nuw i8 %72 to i1
  %75 = trunc nuw i8 %71 to i1
  %76 = select i1 %74, i1 true, i1 %75
  br i1 %76, label %79, label %77, !prof !22

77:                                               ; preds = %70
  %78 = tail call i32 @H5open() #15
  br label %79

79:                                               ; preds = %70, %77
  %80 = load i64, ptr @H5E_CANTSET_g, align 8, !tbaa !23
  %81 = tail call i32 (i64, ptr, ptr, i32, i64, i64, i64, ptr, ...) @H5Epush2(i64 noundef 0, ptr noundef nonnull @.str.1, ptr noundef nonnull @__func__.H5Pset_fapl_multi, i32 noundef 307, i64 noundef %64, i64 noundef %73, i64 noundef %80, ptr noundef nonnull @.str.4) #15
  br label %88

82:                                               ; preds = %50
  br i1 %57, label %85, label %83, !prof !22

83:                                               ; preds = %82
  %84 = tail call i32 @H5open() #15
  br label %85

85:                                               ; preds = %82, %83
  %86 = load i64, ptr @H5FD_MULTI_id_g, align 8, !tbaa !23
  %87 = call i32 @H5Pset_driver(i64 noundef %0, i64 noundef %86, ptr noundef nonnull %7) #15
  br label %88

88:                                               ; preds = %85, %79, %47
  %.0 = phi i32 [ -1, %47 ], [ -1, %79 ], [ %87, %85 ]
  call void @llvm.lifetime.end.p0(i64 208, ptr nonnull %7) #15
  ret i32 %.0
}